target datalayout = "e-m:e-p270:32:32-p271:32:32-p272:64:64-i64:64-i128:128-f80:128-n8:16:32:64-S128"
target triple = "x86_64-pc-linux-gnu"

%"class.cv::gapi::fluid::BorderHandler" = type <{ ptr, i32, [4 x i8] }>
%"class.cv::Mat" = type { i32, i32, i32, i32, ptr, ptr, ptr, ptr, ptr, ptr, %"struct.cv::MatSize", %"struct.cv::MatStep" }
%"struct.cv::MatSize" = type { ptr }
%"struct.cv::MatStep" = type { ptr, [2 x i64] }
%"class.cv::gapi::fluid::BufferStorage" = type { ptr, %"class.cv::Mat" }
%"class.cv::gapi::fluid::BufferStorageWithBorder" = type { %"class.cv::gapi::fluid::BufferStorage", %"class.std::unique_ptr" }
%"class.std::unique_ptr" = type { %"struct.std::__uniq_ptr_data" }
%"struct.std::__uniq_ptr_data" = type { %"class.std::__uniq_ptr_impl" }
%"class.std::__uniq_ptr_impl" = type { %"class.std::tuple" }
%"class.std::tuple" = type { %"struct.std::_Tuple_impl" }
%"struct.std::_Tuple_impl" = type { %"struct.std::_Head_base.1" }
%"struct.std::_Head_base.1" = type { ptr }

; Function Attrs: mustprogress nounwind uwtable
define linkonce_odr hidden noundef nonnull align 8 dereferenceable(8) ptr @_ZNSt10_Head_baseILm0EPN2cv4gapi5fluid13BorderHandlerELb0EE7_M_headERKS5_(ptr noundef nonnull align 8 dereferenceable(8) %0) #8 comdat align 2 {
  %2 = alloca ptr, align 8
  store ptr %0, ptr %2, align 8, !tbaa !295
  %3 = load ptr, ptr %2, align 8, !tbaa !295
  %4 = getelementptr inbounds nuw %"struct.std::_Head_base.1", ptr %3, i32 0, i32 0
  ret ptr %4
}

; Function Attrs: mustprogress nounwind uwtable
define linkonce_odr hidden noundef nonnull align 8 dereferenceable(8) ptr @_ZNSt11_Tuple_implILm0EJPN2cv4gapi5fluid13BorderHandlerESt14default_deleteIS3_EEE7_M_headERKS7_(ptr noundef nonnull align 8 dereferenceable(8) %0) #8 comdat align 2 {
  %2 = alloca ptr, align 8
  store ptr %0, ptr %2, align 8, !tbaa !291
  %3 = load ptr, ptr %2, align 8, !tbaa !291
  %4 = call noundef nonnull align 8 dereferenceable(8) ptr @_ZNSt10_Head_baseILm0EPN2cv4gapi5fluid13BorderHandlerELb0EE7_M_headERKS5_(ptr noundef nonnull align 8 dereferenceable(8) %3) #3
  ret ptr %4
}

; Function Attrs: mustprogress nounwind uwtable
define linkonce_odr hidden noundef nonnull align 8 dereferenceable(8) ptr @_ZSt12__get_helperILm0EPN2cv4gapi5fluid13BorderHandlerEJSt14default_deleteIS3_EEERKT0_RKSt11_Tuple_implIXT_EJS7_DpT1_EE(ptr noundef nonnull align 8 dereferenceable(8) %0) #8 comdat {
  %2 = alloca ptr, align 8
  store ptr %0, ptr %2, align 8, !tbaa !291
  %3 = load ptr, ptr %2, align 8, !tbaa !291
  %4 = call noundef nonnull align 8 dereferenceable(8) ptr @_ZNSt11_Tuple_implILm0EJPN2cv4gapi5fluid13BorderHandlerESt14default_deleteIS3_EEE7_M_headERKS7_(ptr noundef nonnull align 8 dereferenceable(8) %3) #3
  ret ptr %4
}

; Function Attrs: mustprogress nounwind uwtable
define linkonce_odr hidden noundef nonnull align 8 dereferenceable(8) ptr @_ZSt3getILm0EJPN2cv4gapi5fluid13BorderHandlerESt14default_deleteIS3_EEERKNSt13tuple_elementIXT_ESt5tupleIJDpT0_EEE4typeERKSB_(ptr noundef nonnull align 8 dereferenceable(8) %0) #8 comdat {
  %2 = alloca ptr, align 8
  store ptr %0, ptr %2, align 8, !tbaa !289
  %3 = load ptr, ptr %2, align 8, !tbaa !289
  %4 = call noundef nonnull align 8 dereferenceable(8) ptr @_ZSt12__get_helperILm0EPN2cv4gapi5fluid13BorderHandlerEJSt14default_deleteIS3_EEERKT0_RKSt11_Tuple_implIXT_EJS7_DpT1_EE(ptr noundef nonnull align 8 dereferenceable(8) %3) #3
  ret ptr %4
}

; Function Attrs: inlinehint mustprogress nounwind uwtable
define linkonce_odr hidden noundef i32 @_ZNK2cv4gapi5fluid13BorderHandler10borderSizeEv(ptr noundef nonnull align 8 dereferenceable(12) %0) #5 comdat align 2 {
  %2 = alloca ptr, align 8
  store ptr %0, ptr %2, align 8, !tbaa !18
  %3 = load ptr, ptr %2, align 8
  %4 = getelementptr inbounds nuw %"class.cv::gapi::fluid::BorderHandler", ptr %3, i32 0, i32 1
  %5 = load i32, ptr %4, align 8, !tbaa !23
  ret i32 %5
}

; Function Attrs: mustprogress nounwind uwtable
define linkonce_odr hidden noundef ptr @_ZNKSt15__uniq_ptr_implIN2cv4gapi5fluid13BorderHandlerESt14default_deleteIS3_EE6_M_ptrEv(ptr noundef nonnull align 8 dereferenceable(8) %0) #8 comdat align 2 {
  %2 = alloca ptr, align 8
  store ptr %0, ptr %2, align 8, !tbaa !287
  %3 = load ptr, ptr %2, align 8
  %4 = getelementptr inbounds nuw %"class.std::__uniq_ptr_impl", ptr %3, i32 0, i32 0
  %5 = call noundef nonnull align 8 dereferenceable(8) ptr @_ZSt3getILm0EJPN2cv4gapi5fluid13BorderHandlerESt14default_deleteIS3_EEERKNSt13tuple_elementIXT_ESt5tupleIJDpT0_EEE4typeERKSB_(ptr noundef nonnull align 8 dereferenceable(8) %4) #3
  %6 = load ptr, ptr %5, align 8, !tbaa !18
  ret ptr %6
}

; Function Attrs: inlinehint mustprogress nounwind uwtable
define linkonce_odr hidden noundef ptr @_ZNK2cv3Mat3ptrEii(ptr noundef nonnull align 8 dereferenceable(96) %0, i32 noundef %1, i32 noundef %2) #5 comdat align 2 {
  %4 = alloca ptr, align 8
  %5 = alloca i32, align 4
  %6 = alloca i32, align 4
  store ptr %0, ptr %4, align 8, !tbaa !35
  store i32 %1, ptr %5, align 4, !tbaa !20
  store i32 %2, ptr %6, align 4, !tbaa !20
  %7 = load ptr, ptr %4, align 8
  %8 = getelementptr inbounds nuw %"class.cv::Mat", ptr %7, i32 0, i32 4
  %9 = load ptr, ptr %8, align 8, !tbaa !37
  %10 = load i32, ptr %5, align 4, !tbaa !20
  %11 = sext i32 %10 to i64
  %12 = getelementptr inbounds nuw %"class.cv::Mat", ptr %7, i32 0, i32 11
  %13 = getelementptr inbounds nuw %"struct.cv::MatStep", ptr %12, i32 0, i32 0
  %14 = load ptr, ptr %13, align 8, !tbaa !45
  %15 = getelementptr inbounds i64, ptr %14, i64 0
  %16 = load i64, ptr %15, align 8, !tbaa !46
  %17 = mul i64 %11, %16
  %18 = getelementptr inbounds nuw i8, ptr %9, i64 %17
  %19 = load i32, ptr %6, align 4, !tbaa !20
  %20 = sext i32 %19 to i64
  %21 = getelementptr inbounds nuw %"class.cv::Mat", ptr %7, i32 0, i32 11
  %22 = getelementptr inbounds nuw %"struct.cv::MatStep", ptr %21, i32 0, i32 0
  %23 = load ptr, ptr %22, align 8, !tbaa !45
  %24 = getelementptr inbounds i64, ptr %23, i64 1
  %25 = load i64, ptr %24, align 8, !tbaa !46
  %26 = mul i64 %20, %25
  %27 = getelementptr inbounds nuw i8, ptr %18, i64 %26
  ret ptr %27
}

; Function Attrs: inlinehint mustprogress nounwind uwtable
define linkonce_odr hidden noundef i32 @_ZNK2cv4gapi5fluid23BufferStorageWithBorder10borderSizeEv(ptr noundef nonnull align 8 dereferenceable(112) %0) #5 comdat align 2 {
  %2 = alloca ptr, align 8
  store ptr %0, ptr %2, align 8, !tbaa !33
  %3 = load ptr, ptr %2, align 8
  %4 = getelementptr inbounds nuw %"class.cv::gapi::fluid::BufferStorageWithBorder", ptr %3, i32 0, i32 1
  %5 = call noundef ptr @_ZNKSt10unique_ptrIN2cv4gapi5fluid13BorderHandlerESt14default_deleteIS3_EEptEv(ptr noundef nonnull align 8 dereferenceable(8) %4) #3
  %6 = call noundef i32 @_ZNK2cv4gapi5fluid13BorderHandler10borderSizeEv(ptr noundef nonnull align 8 dereferenceable(12) %5)
  ret i32 %6
}

; Function Attrs: inlinehint mustprogress nounwind uwtable
define linkonce_odr hidden noundef i32 @_ZNK2cv4gapi5fluid23BufferStorageWithBorder7physIdxEi(ptr noundef nonnull align 8 dereferenceable(112) %0, i32 noundef %1) unnamed_addr #5 comdat align 2 {
  %3 = alloca ptr, align 8
  %4 = alloca i32, align 4
  store ptr %0, ptr %3, align 8, !tbaa !33
  store i32 %1, ptr %4, align 4, !tbaa !20
  %5 = load ptr, ptr %3, align 8
  %6 = load i32, ptr %4, align 4, !tbaa !20
  %7 = getelementptr inbounds nuw %"class.cv::gapi::fluid::BufferStorage", ptr %5, i32 0, i32 1
  %8 = getelementptr inbounds nuw %"class.cv::Mat", ptr %7, i32 0, i32 2
  %9 = load i32, ptr %8, align 8, !tbaa !100
  %10 = srem i32 %6, %9
  ret i32 %10
}

; Function Attrs: mustprogress nounwind uwtable
define linkonce_odr hidden noundef ptr @_ZNKSt10unique_ptrIN2cv4gapi5fluid13BorderHandlerESt14default_deleteIS3_EE3getEv(ptr noundef nonnull align 8 dereferenceable(8) %0) #8 comdat align 2 {
  %2 = alloca ptr, align 8
  store ptr %0, ptr %2, align 8, !tbaa !87
  %3 = load ptr, ptr %2, align 8
  %4 = getelementptr inbounds nuw %"class.std::unique_ptr", ptr %3, i32 0, i32 0
  %5 = call noundef ptr @_ZNKSt15__uniq_ptr_implIN2cv4gapi5fluid13BorderHandlerESt14default_deleteIS3_EE6_M_ptrEv(ptr noundef nonnull align 8 dereferenceable(8) %4) #3
  ret ptr %5
}

; Function Attrs: inlinehint mustprogress uwtable
define linkonce_odr hidden noundef ptr @_ZNK2cv4gapi5fluid23BufferStorageWithBorder3ptrEi(ptr noundef nonnull align 8 dereferenceable(112) %0, i32 noundef %1) unnamed_addr #9 comdat align 2 {
  %3 = alloca ptr, align 8
  %4 = alloca i32, align 4
  store ptr %0, ptr %3, align 8, !tbaa !33
  store i32 %1, ptr %4, align 4, !tbaa !20
  %5 = load ptr, ptr %3, align 8
  %6 = getelementptr inbounds nuw %"class.cv::gapi::fluid::BufferStorage", ptr %5, i32 0, i32 1
  %7 = load i32, ptr %4, align 4, !tbaa !20
  %8 = call noundef i32 @_ZNK2cv4gapi5fluid23BufferStorageWithBorder7physIdxEi(ptr noundef nonnull align 8 dereferenceable(112) %5, i32 noundef %7)
  %9 = call noundef i32 @_ZNK2cv4gapi5fluid23BufferStorageWithBorder10borderSizeEv(ptr noundef nonnull align 8 dereferenceable(112) %5)
  %10 = call noundef ptr @_ZNK2cv3Mat3ptrEii(ptr noundef nonnull align 8 dereferenceable(96) %6, i32 noundef %8, i32 noundef %9)
  ret ptr %10
}

; Function Attrs: mustprogress nounwind uwtable
define linkonce_odr hidden noundef ptr @_ZNKSt10unique_ptrIN2cv4gapi5fluid13BorderHandlerESt14default_deleteIS3_EEptEv(ptr noundef nonnull align 8 dereferenceable(8) %0) #8 comdat align 2 {
  %2 = alloca ptr, align 8
  store ptr %0, ptr %2, align 8, !tbaa !87
  %3 = load ptr, ptr %2, align 8
  %4 = call noundef ptr @_ZNKSt10unique_ptrIN2cv4gapi5fluid13BorderHandlerESt14default_deleteIS3_EE3getEv(ptr noundef nonnull align 8 dereferenceable(8) %3) #3
  ret ptr %4
}

; Function Attrs: mustprogress uwtable
define hidden noundef ptr @_ZNK2cv4gapi5fluid23BufferStorageWithBorder7inLineBEii(ptr noundef nonnull align 8 dereferenceable(112) %0, i32 noundef %1, i32 noundef %2) unnamed_addr #4 align 2 {
  %4 = alloca ptr, align 8
  %5 = alloca ptr, align 8
  %6 = alloca i32, align 4
  %7 = alloca i32, align 4
  store ptr %0, ptr %5, align 8, !tbaa !33
  store i32 %1, ptr %6, align 4, !tbaa !20
  store i32 %2, ptr %7, align 4, !tbaa !20
  %8 = load ptr, ptr %5, align 8
  %9 = load i32, ptr %6, align 4, !tbaa !20
  %10 = icmp slt i32 %9, 0
  br i1 %10, label %15, label %11

11:                                               ; preds = %3
  %12 = load i32, ptr %6, align 4, !tbaa !20
  %13 = load i32, ptr %7, align 4, !tbaa !20
  %14 = icmp sge i32 %12, %13
  br i1 %14, label %15, label %24

15:                                               ; preds = %11, %3
  %16 = getelementptr inbounds nuw %"class.cv::gapi::fluid::BufferStorageWithBorder", ptr %8, i32 0, i32 1
  %17 = call noundef ptr @_ZNKSt10unique_ptrIN2cv4gapi5fluid13BorderHandlerESt14default_deleteIS3_EEptEv(ptr noundef nonnull align 8 dereferenceable(8) %16) #3
  %18 = load i32, ptr %6, align 4, !tbaa !20
  %19 = load i32, ptr %7, align 4, !tbaa !20
  %20 = load ptr, ptr %17, align 8, !tbaa !21
  %21 = getelementptr inbounds ptr, ptr %20, i64 2
  %22 = load ptr, ptr %21, align 8
  %23 = call noundef ptr %22(ptr noundef nonnull align 8 dereferenceable(12) %17, i32 noundef %18, ptr noundef nonnull align 8 dereferenceable(112) %8, i32 noundef %19)
  store ptr %23, ptr %4, align 8
  br label %27

24:                                               ; preds = %11
  %25 = load i32, ptr %6, align 4, !tbaa !20
  %26 = call noundef ptr @_ZNK2cv4gapi5fluid23BufferStorageWithBorder3ptrEi(ptr noundef nonnull align 8 dereferenceable(112) %8, i32 noundef %25)
  store ptr %26, ptr %4, align 8
  br label %27

27:                                               ; preds = %24, %15
  %28 = load ptr, ptr %4, align 8
  ret ptr %28
}