; Function Attrs: mustprogress uwtable
define hidden noundef ptr @_ZNK2cv4gapi5fluid23BufferStorageWithBorder7inLineBEii(ptr noundef nonnull align 8 dereferenceable(112) %0, i32 noundef %1, i32 noundef %2) unnamed_addr #4 align 2 {
  %4 = icmp sgt i32 %1, -1
  %.not = icmp slt i32 %1, %2
  %or.cond = and i1 %4, %.not
  br i1 %or.cond, label %12, label %5

5:                                                ; preds = %3
  %6 = getelementptr inbounds nuw i8, ptr %0, i64 104
  %7 = load ptr, ptr %6, align 8, !tbaa !65
  %8 = load ptr, ptr %7, align 8, !tbaa !13
  %9 = getelementptr inbounds nuw i8, ptr %8, i64 16
  %10 = load ptr, ptr %9, align 8
  %11 = tail call noundef ptr %10(ptr noundef nonnull align 8 dereferenceable(12) %7, i32 noundef %1, ptr noundef nonnull align 8 dereferenceable(112) %0, i32 noundef %2)
  br label %33

12:                                               ; preds = %3
  %13 = getelementptr inbounds nuw i8, ptr %0, i64 16
  %14 = load i32, ptr %13, align 8, !tbaa !74
  %15 = srem i32 %1, %14
  %16 = getelementptr inbounds nuw i8, ptr %0, i64 104
  %17 = load ptr, ptr %16, align 8, !tbaa !65
  %18 = getelementptr inbounds nuw i8, ptr %17, i64 8
  %19 = load i32, ptr %18, align 8, !tbaa !22
  %20 = getelementptr inbounds nuw i8, ptr %0, i64 24
  %21 = load ptr, ptr %20, align 8, !tbaa !26
  %22 = zext nneg i32 %15 to i64
  %23 = getelementptr inbounds nuw i8, ptr %0, i64 80
  %24 = load ptr, ptr %23, align 8, !tbaa !34
  %25 = load i64, ptr %24, align 8, !tbaa !35
  %26 = mul i64 %25, %22
  %27 = getelementptr inbounds nuw i8, ptr %21, i64 %26
  %28 = sext i32 %19 to i64
  %29 = getelementptr inbounds nuw i8, ptr %24, i64 8
  %30 = load i64, ptr %29, align 8, !tbaa !35
  %31 = mul i64 %30, %28
  %32 = getelementptr inbounds nuw i8, ptr %27, i64 %31
  br label %33

33:                                               ; preds = %12, %5
  %.0 = phi ptr [ %11, %5 ], [ %32, %12 ]
  ret ptr %.0
}